target datalayout = "e-m:e-p270:32:32-p271:32:32-p272:64:64-i64:64-i128:128-f80:128-n8:16:32:64-S128"
target triple = "x86_64-pc-linux-gnu"

%union.pthread_mutex_t = type { %struct.__pthread_mutex_s }
%struct.__pthread_mutex_s = type { i32, i32, i32, i32, i32, i16, i16, %struct.__pthread_internal_list }
%struct.__pthread_internal_list = type { ptr, ptr }
%union.pthread_cond_t = type { %struct.__pthread_cond_s }
%struct.__pthread_cond_s = type { %union.__atomic_wide_counter, %union.__atomic_wide_counter, [2 x i32], [2 x i32], i32, i32, [2 x i32] }
%union.__atomic_wide_counter = type { i64 }
%struct.log_options_t = type { i32, i32, i32, i8, i8, i8, i32 }
%struct.slurmd_config = type { ptr, ptr, i32, [4096 x i8], ptr, ptr, ptr, ptr, i16, i16, i16, i16, ptr, i16, i64, i16, i16, i16, i16, i16, i16, i16, i16, i16, i16, i16, i64, i64, i32, i32, i16, ptr, ptr, ptr, i32, ptr, ptr, ptr, ptr, ptr, ptr, ptr, ptr, ptr, ptr, i32, ptr, ptr, i16, i32, i32, %struct.log_options_t, i32, i16, i64, i8, i8, i8, i8, i8, %union.pthread_mutex_t, i16, ptr, %union.pthread_cond_t, ptr, %union.pthread_cond_t, i8, i8, ptr, ptr }

@conf = dso_local global ptr null, align 8
@.str.146 = private unnamed_addr constant [50 x i8] c"%s: [%s] Successfully opened slurm listen port %u\00", align 1
@__func__._on_listen_connect = private unnamed_addr constant [19 x i8] c"_on_listen_connect\00", align 1

; Function Attrs: nounwind uwtable
define internal ptr @_on_listen_connect(ptr noundef %0, ptr noundef %1) #0 {
  %3 = alloca ptr, align 8
  %4 = alloca ptr, align 8
  store ptr %0, ptr %3, align 8
  store ptr %1, ptr %4, align 8
  br label %5

5:                                                ; preds = %2
  br label %6

6:                                                ; preds = %5
  %7 = call i32 @get_log_level()
  %8 = icmp sge i32 %7, 7
  br i1 %8, label %9, label %16

9:                                                ; preds = %6
  %10 = load ptr, ptr %3, align 8
  %11 = call ptr @conmgr_fd_get_name(ptr noundef %10)
  %12 = load ptr, ptr @conf, align 8
  %13 = getelementptr inbounds nuw %struct.slurmd_config, ptr %12, i32 0, i32 48
  %14 = load i16, ptr %13, align 8
  %15 = zext i16 %14 to i32
  call void (i32, ptr, ...) @log_var(i32 noundef 7, ptr noundef @.str.146, ptr noundef @__func__._on_listen_connect, ptr noundef %11, i32 noundef %15)
  br label %16

16:                                               ; preds = %9, %6
  br label %17

17:                                               ; preds = %16
  br label %18

18:                                               ; preds = %17
  call void @slurmd_req(ptr noundef null)
  %19 = load ptr, ptr %3, align 8
  ret ptr %19
}