; Function Attrs: nounwind uwtable
define internal noundef ptr @_on_listen_connect(ptr noundef returned %0, ptr readnone captures(none) %1) #0 {
  %3 = tail call i32 @get_log_level() #18
  %4 = icmp sgt i32 %3, 6
  br i1 %4, label %5, label %11

5:                                                ; preds = %2
  %6 = tail call ptr @conmgr_fd_get_name(ptr noundef %0) #18
  %7 = load ptr, ptr @conf, align 8
  %8 = getelementptr inbounds nuw i8, ptr %7, i64 4376
  %9 = load i16, ptr %8, align 8
  %10 = zext i16 %9 to i32
  tail call void (i32, ptr, ...) @log_var(i32 noundef 7, ptr noundef nonnull @.str.146, ptr noundef nonnull @__func__._on_listen_connect, ptr noundef %6, i32 noundef %10) #18
  br label %11

11:                                               ; preds = %5, %2
  tail call void @slurmd_req(ptr noundef null) #18
  ret ptr %0
}